; Function Attrs: nounwind sspstrong uwtable
define internal noundef i64 @proc_warmup(i64 %0) #1 {
  %2 = alloca i32, align 4
  call void @llvm.lifetime.start.p0(i64 4, ptr nonnull %2) #27
  %3 = load ptr, ptr @ruby_single_main_ractor, align 8, !tbaa !255
  %.not.i.i = icmp eq ptr %3, null
  br i1 %.not.i.i, label %4, label %rb_vm_lock_enter.exit

4:                                                ; preds = %1
  call void @rb_vm_lock_enter_body(ptr noundef nonnull %2) #27
  br label %rb_vm_lock_enter.exit

rb_vm_lock_enter.exit:                            ; preds = %1, %4
  call void @rb_gc_prepare_heap() #27
  %5 = load ptr, ptr @ruby_single_main_ractor, align 8, !tbaa !255
  %.not.i.i1 = icmp eq ptr %5, null
  br i1 %.not.i.i1, label %6, label %rb_vm_lock_leave.exit

6:                                                ; preds = %rb_vm_lock_enter.exit
  call void @rb_vm_lock_leave_body(ptr noundef nonnull %2) #27
  br label %rb_vm_lock_leave.exit

rb_vm_lock_leave.exit:                            ; preds = %rb_vm_lock_enter.exit, %6
  call void @llvm.lifetime.end.p0(i64 4, ptr nonnull %2) #27
  ret i64 20
}